; Function Attrs: mustprogress uwtable
define hidden noundef nonnull align 8 dereferenceable(8) ptr @_ZlsRSo12copyfmt_test(ptr noundef nonnull align 8 dereferenceable(8) %os) local_unnamed_addr #3 personality ptr @__gxx_personality_v0 {
entry:
  %ios = alloca %"class.std::basic_ios", align 8
  call void @_ZNSt9basic_iosIcSt11char_traitsIcEEC1EPSt15basic_streambufIcS1_E(ptr noundef nonnull align 8 dereferenceable(264) %ios, ptr noundef null)
  %vtable = load ptr, ptr %os, align 8
  %vbase.offset.ptr = getelementptr i8, ptr %vtable, i64 -24
  %vbase.offset = load i64, ptr %vbase.offset.ptr, align 8
  %add.ptr = getelementptr inbounds i8, ptr %os, i64 %vbase.offset
  %call = invoke noundef nonnull align 8 dereferenceable(264) ptr @_ZNSt9basic_iosIcSt11char_traitsIcEE7copyfmtERKS2_(ptr noundef nonnull align 8 dereferenceable(264) %ios, ptr noundef nonnull align 8 dereferenceable(264) %add.ptr)
          to label %invoke.cont unwind label %lpad

invoke.cont:                                      ; preds = %entry
  %call2 = invoke noundef nonnull align 8 dereferenceable(8) ptr @_ZStlsISt11char_traitsIcEERSt13basic_ostreamIcT_ES5_PKc(ptr noundef nonnull align 8 dereferenceable(8) %os, ptr noundef nonnull @.str.94)
          to label %invoke.cont1 unwind label %lpad

invoke.cont1:                                     ; preds = %invoke.cont
  call void @_ZNSt9basic_iosIcSt11char_traitsIcEED1Ev(ptr noundef nonnull align 8 dereferenceable(264) %ios) #25
  ret ptr %call2

lpad:                                             ; preds = %invoke.cont, %entry
  %0 = landingpad { ptr, i32 }
          cleanup
  call void @_ZNSt9basic_iosIcSt11char_traitsIcEED1Ev(ptr noundef nonnull align 8 dereferenceable(264) %ios) #25
  resume { ptr, i32 } %0
}